; ModuleID = '15/342.c'
source_filename = "15/342.c"
target datalayout = "e-m:e-p270:32:32-p271:32:32-p272:64:64-i64:64-f80:128-n8:16:32:64-S128"
target triple = "x86_64-pc-linux-gnu"

@.str = private unnamed_addr constant [3 x i8] c"%d\00", align 1
@.str.1 = private unnamed_addr constant [4 x i8] c"%d\0A\00", align 1

; Function Attrs: noinline nounwind uwtable
define dso_local i32 @main(i32 %0, i8** %1) #0 {
  %3 = alloca i32, align 4
  %4 = alloca i32, align 4
  %5 = alloca i8**, align 8
  %6 = alloca i32, align 4
  %7 = alloca [1000 x [1000 x i32]], align 16
  %8 = alloca i32, align 4
  %9 = alloca i32, align 4
  %10 = alloca i32, align 4
  %11 = alloca i32, align 4
  %12 = alloca i32, align 4
  %13 = alloca i32, align 4
  %14 = alloca i32, align 4
  store i32 0, i32* %3, align 4
  store i32 %0, i32* %4, align 4
  store i8** %1, i8*** %5, align 8
  %15 = call i32 (i8*, ...) @__isoc99_scanf(i8* getelementptr inbounds ([3 x i8], [3 x i8]* @.str, i64 0, i64 0), i32* %6)
  store i32 0, i32* %12, align 4
  br label %16

16:                                               ; preds = %49, %2
  %17 = load i32, i32* %12, align 4
  %18 = load i32, i32* %6, align 4
  %19 = icmp slt i32 %17, %18
  br i1 %19, label %20, label %52

20:                                               ; preds = %16
  store i32 0, i32* %13, align 4
  br label %21

21:                                               ; preds = %45, %20
  %22 = load i32, i32* %13, align 4
  %23 = load i32, i32* %6, align 4
  %24 = icmp slt i32 %22, %23
  br i1 %24, label %25, label %48

25:                                               ; preds = %21
  %26 = load i32, i32* %12, align 4
  %27 = sext i32 %26 to i64
  %28 = getelementptr inbounds [1000 x [1000 x i32]], [1000 x [1000 x i32]]* %7, i64 0, i64 %27
  %29 = load i32, i32* %13, align 4
  %30 = sext i32 %29 to i64
  %31 = getelementptr inbounds [1000 x i32], [1000 x i32]* %28, i64 0, i64 %30
  %32 = call i32 (i8*, ...) @__isoc99_scanf(i8* getelementptr inbounds ([3 x i8], [3 x i8]* @.str, i64 0, i64 0), i32* %31)
  %33 = load i32, i32* %12, align 4
  %34 = sext i32 %33 to i64
  %35 = getelementptr inbounds [1000 x [1000 x i32]], [1000 x [1000 x i32]]* %7, i64 0, i64 %34
  %36 = load i32, i32* %13, align 4
  %37 = sext i32 %36 to i64
  %38 = getelementptr inbounds [1000 x i32], [1000 x i32]* %35, i64 0, i64 %37
  %39 = load i32, i32* %38, align 4
  %40 = icmp eq i32 %39, 0
  br i1 %40, label %41, label %44

41:                                               ; preds = %25
  %42 = load i32, i32* %12, align 4
  store i32 %42, i32* %10, align 4
  %43 = load i32, i32* %13, align 4
  store i32 %43, i32* %11, align 4
  br label %44

44:                                               ; preds = %41, %25
  br label %45

45:                                               ; preds = %44
  %46 = load i32, i32* %13, align 4
  %47 = add nsw i32 %46, 1
  store i32 %47, i32* %13, align 4
  br label %21

48:                                               ; preds = %21
  br label %49

49:                                               ; preds = %48
  %50 = load i32, i32* %12, align 4
  %51 = add nsw i32 %50, 1
  store i32 %51, i32* %12, align 4
  br label %16

52:                                               ; preds = %16
  %53 = load i32, i32* %6, align 4
  %54 = sub nsw i32 %53, 1
  store i32 %54, i32* %12, align 4
  br label %55

55:                                               ; preds = %81, %52
  %56 = load i32, i32* %12, align 4
  %57 = icmp sge i32 %56, 0
  br i1 %57, label %58, label %84

58:                                               ; preds = %55
  %59 = load i32, i32* %6, align 4
  %60 = sub nsw i32 %59, 1
  store i32 %60, i32* %13, align 4
  br label %61

61:                                               ; preds = %77, %58
  %62 = load i32, i32* %13, align 4
  %63 = icmp sge i32 %62, 0
  br i1 %63, label %64, label %80

64:                                               ; preds = %61
  %65 = load i32, i32* %12, align 4
  %66 = sext i32 %65 to i64
  %67 = getelementptr inbounds [1000 x [1000 x i32]], [1000 x [1000 x i32]]* %7, i64 0, i64 %66
  %68 = load i32, i32* %13, align 4
  %69 = sext i32 %68 to i64
  %70 = getelementptr inbounds [1000 x i32], [1000 x i32]* %67, i64 0, i64 %69
  %71 = load i32, i32* %70, align 4
  %72 = icmp eq i32 %71, 0
  br i1 %72, label %73, label %76

73:                                               ; preds = %64
  %74 = load i32, i32* %12, align 4
  store i32 %74, i32* %8, align 4
  %75 = load i32, i32* %13, align 4
  store i32 %75, i32* %9, align 4
  br label %76

76:                                               ; preds = %73, %64
  br label %77

77:                                               ; preds = %76
  %78 = load i32, i32* %13, align 4
  %79 = add nsw i32 %78, -1
  store i32 %79, i32* %13, align 4
  br label %61

80:                                               ; preds = %61
  br label %81

81:                                               ; preds = %80
  %82 = load i32, i32* %12, align 4
  %83 = add nsw i32 %82, -1
  store i32 %83, i32* %12, align 4
  br label %55

84:                                               ; preds = %55
  %85 = load i32, i32* %11, align 4
  %86 = load i32, i32* %9, align 4
  %87 = sub nsw i32 %85, %86
  %88 = sub nsw i32 %87, 1
  %89 = load i32, i32* %10, align 4
  %90 = load i32, i32* %8, align 4
  %91 = sub nsw i32 %89, %90
  %92 = sub nsw i32 %91, 1
  %93 = mul nsw i32 %88, %92
  store i32 %93, i32* %14, align 4
  %94 = load i32, i32* %14, align 4
  %95 = call i32 (i8*, ...) @printf(i8* getelementptr inbounds ([4 x i8], [4 x i8]* @.str.1, i64 0, i64 0), i32 %94)
  ret i32 0
}

declare dso_local i32 @__isoc99_scanf(i8*, ...) #1

declare dso_local i32 @printf(i8*, ...) #1


!llvm.module.flags = !{!0}
!llvm.ident = !{!1}

!0 = !{i32 1, !"wchar_size", i32 4}
!1 = !{!"clang version 10.0.0-4ubuntu1 "}
